; Function Attrs: nofree norecurse nosync nounwind memory(read, inaccessiblemem: none) uwtable
define i32 @Saig_StrSimHash(ptr noundef readonly captures(none) %0) local_unnamed_addr #0 {
  %2 = getelementptr inbounds nuw i8, ptr %0, i64 40
  %3 = load ptr, ptr %2, align 8, !tbaa !3
  br label %4

4:                                                ; preds = %1, %4
  %indvars.iv = phi i64 [ 0, %1 ], [ %indvars.iv.next, %4 ]
  %.078 = phi i32 [ 0, %1 ], [ %10, %4 ]
  %5 = getelementptr inbounds nuw i32, ptr %3, i64 %indvars.iv
  %6 = load i32, ptr %5, align 4, !tbaa !6
  %7 = getelementptr inbounds nuw [128 x i32], ptr @Saig_StrSimHash.s_SPrimes, i64 0, i64 %indvars.iv
  %8 = load i32, ptr %7, align 4, !tbaa !6
  %9 = mul i32 %8, %6
  %10 = xor i32 %9, %.078
  %indvars.iv.next = add nuw nsw i64 %indvars.iv, 1
  %exitcond.not = icmp eq i64 %indvars.iv.next, 16
  br i1 %exitcond.not, label %11, label %4, !llvm.loop !8

11:                                               ; preds = %4
  ret i32 %10
}